target datalayout = "e-m:e-p270:32:32-p271:32:32-p272:64:64-i64:64-i128:128-f80:128-n8:16:32:64-S128"
target triple = "x86_64-pc-linux-gnu"

%struct.match_data = type { ptr, i64, ptr, ptr, ptr, i8, i8 }

; Function Attrs: null_pointer_is_valid sspstrong uwtable
define hidden zeroext i1 @cf_find_packet_summary_line(ptr noundef %0, ptr noundef %1, i32 noundef %2) #1 {
  %4 = alloca ptr, align 8
  %5 = alloca ptr, align 8
  %6 = alloca i32, align 4
  %7 = alloca %struct.match_data, align 8
  store ptr %0, ptr %4, align 8
  store ptr %1, ptr %5, align 8
  store i32 %2, ptr %6, align 4
  call void @llvm.lifetime.start.p0(i64 48, ptr %7) #19
  %8 = load ptr, ptr %5, align 8
  %9 = getelementptr inbounds nuw %struct.match_data, ptr %7, i32 0, i32 0
  store ptr %8, ptr %9, align 8
  %10 = load ptr, ptr %5, align 8
  %11 = call i64 @strlen(ptr noundef %10) #25
  %12 = getelementptr inbounds nuw %struct.match_data, ptr %7, i32 0, i32 1
  store i64 %11, ptr %12, align 8
  %13 = load ptr, ptr %4, align 8
  %14 = load i32, ptr %6, align 4
  %15 = call zeroext i1 @find_packet(ptr noundef %13, ptr noundef @match_summary_line, ptr noundef %7, i32 noundef %14, i1 noundef zeroext true)
  call void @llvm.lifetime.end.p0(i64 48, ptr %7) #19
  ret i1 %15
}