; Function Attrs: null_pointer_is_valid sspstrong uwtable
define hidden noundef zeroext i1 @cf_find_packet_summary_line(ptr noundef initializes((34, 35)) %0, ptr noundef %1, i32 noundef %2) local_unnamed_addr #1 {
  %4 = alloca %struct.match_data, align 8
  call void @llvm.lifetime.start.p0(i64 48, ptr nonnull %4) #23
  store ptr %1, ptr %4, align 8
  %5 = tail call i64 @strlen(ptr noundef %1) #26
  %6 = getelementptr inbounds nuw i8, ptr %4, i64 8
  store i64 %5, ptr %6, align 8
  %7 = call fastcc zeroext i1 @find_packet(ptr noundef %0, ptr noundef nonnull @match_summary_line, ptr noundef nonnull %4, i32 noundef %2, i1 noundef zeroext true)
  call void @llvm.lifetime.end.p0(i64 48, ptr nonnull %4) #23
  ret i1 %7
}